target datalayout = "e-m:e-p270:32:32-p271:32:32-p272:64:64-i64:64-i128:128-f80:128-n8:16:32:64-S128"
target triple = "x86_64-pc-linux-gnu"

%"class.std::__cxx11::basic_string" = type { %"struct.std::__cxx11::basic_string<char>::_Alloc_hider", i64, %union.anon }
%"struct.std::__cxx11::basic_string<char>::_Alloc_hider" = type { ptr }
%union.anon = type { i64, [8 x i8] }
%"class.std::allocator" = type { i8 }
%"struct.std::_Vector_base.300" = type { %"struct.std::_Vector_base<cmExpandedCommandArgument, std::allocator<cmExpandedCommandArgument>>::_Vector_impl" }
%"struct.std::_Vector_base<cmExpandedCommandArgument, std::allocator<cmExpandedCommandArgument>>::_Vector_impl" = type { %"struct.std::_Vector_base<cmExpandedCommandArgument, std::allocator<cmExpandedCommandArgument>>::_Vector_impl_data" }
%"struct.std::_Vector_base<cmExpandedCommandArgument, std::allocator<cmExpandedCommandArgument>>::_Vector_impl_data" = type { ptr, ptr, ptr }
%"class.std::basic_string_view" = type { i64, ptr }
%"class.__gnu_cxx::__normal_iterator.320" = type { ptr }
%class.cmExpandedCommandArgument = type <{ %"class.std::__cxx11::basic_string", i8, [7 x i8] }>

@.str.8 = private unnamed_addr constant [19 x i8] c"given arguments:\0A \00", align 1
@.str.9 = private unnamed_addr constant [2 x i8] c" \00", align 1
@.str.10 = private unnamed_addr constant [2 x i8] c"\0A\00", align 1
@.str.12 = private unnamed_addr constant [50 x i8] c"basic_string: construction from null is not valid\00", align 1

; Function Attrs: mustprogress nounwind uwtable
define linkonce_odr dso_local noundef nonnull align 8 dereferenceable(8) ptr @_ZNK9__gnu_cxx17__normal_iteratorIPK25cmExpandedCommandArgumentSt6vectorIS1_SaIS1_EEE4baseEv(ptr noundef nonnull align 8 dereferenceable(8) %0) #5 comdat align 2 {
  %2 = alloca ptr, align 8
  store ptr %0, ptr %2, align 8
  %3 = load ptr, ptr %2, align 8
  %4 = getelementptr inbounds %"class.__gnu_cxx::__normal_iterator.320", ptr %3, i32 0, i32 0
  ret ptr %4
}

; Function Attrs: mustprogress nounwind uwtable
define linkonce_odr dso_local void @_ZN9__gnu_cxx17__normal_iteratorIPK25cmExpandedCommandArgumentSt6vectorIS1_SaIS1_EEEC2ERKS3_(ptr noundef nonnull align 8 dereferenceable(8) %0, ptr noundef nonnull align 8 dereferenceable(8) %1) unnamed_addr #5 comdat align 2 {
  %3 = alloca ptr, align 8
  %4 = alloca ptr, align 8
  store ptr %0, ptr %3, align 8
  store ptr %1, ptr %4, align 8
  %5 = load ptr, ptr %3, align 8
  %6 = getelementptr inbounds %"class.__gnu_cxx::__normal_iterator.320", ptr %5, i32 0, i32 0
  %7 = load ptr, ptr %4, align 8
  %8 = load ptr, ptr %7, align 8
  store ptr %8, ptr %6, align 8
  ret void
}

; Function Attrs: mustprogress nounwind uwtable
define linkonce_odr dso_local noundef i64 @_ZNSt11char_traitsIcE6lengthEPKc(ptr noundef %0) #5 comdat align 2 {
  %2 = alloca ptr, align 8
  store ptr %0, ptr %2, align 8
  %3 = load ptr, ptr %2, align 8
  %4 = call i64 @strlen(ptr noundef %3) #3
  ret i64 %4
}

; Function Attrs: mustprogress nounwind uwtable
define linkonce_odr dso_local void @_ZNSt7__cxx1112basic_stringIcSt11char_traitsIcESaIcEE12_Alloc_hiderD2Ev(ptr noundef nonnull align 8 dereferenceable(8) %0) unnamed_addr #5 comdat align 2 {
  %2 = alloca ptr, align 8
  store ptr %0, ptr %2, align 8
  %3 = load ptr, ptr %2, align 8
  call void @_ZNSaIcED2Ev(ptr noundef nonnull align 1 dereferenceable(1) %3) #3
  ret void
}

; Function Attrs: mustprogress nounwind uwtable
define linkonce_odr dso_local noundef nonnull align 8 dereferenceable(8) ptr @_ZN9__gnu_cxx17__normal_iteratorIPK25cmExpandedCommandArgumentSt6vectorIS1_SaIS1_EEEppEv(ptr noundef nonnull align 8 dereferenceable(8) %0) #5 comdat align 2 {
  %2 = alloca ptr, align 8
  store ptr %0, ptr %2, align 8
  %3 = load ptr, ptr %2, align 8
  %4 = getelementptr inbounds %"class.__gnu_cxx::__normal_iterator.320", ptr %3, i32 0, i32 0
  %5 = load ptr, ptr %4, align 8
  %6 = getelementptr inbounds %class.cmExpandedCommandArgument, ptr %5, i32 1
  store ptr %6, ptr %4, align 8
  ret ptr %3
}

; Function Attrs: mustprogress nounwind uwtable
define linkonce_odr dso_local noundef nonnull align 8 dereferenceable(33) ptr @_ZNK9__gnu_cxx17__normal_iteratorIPK25cmExpandedCommandArgumentSt6vectorIS1_SaIS1_EEEdeEv(ptr noundef nonnull align 8 dereferenceable(8) %0) #5 comdat align 2 {
  %2 = alloca ptr, align 8
  store ptr %0, ptr %2, align 8
  %3 = load ptr, ptr %2, align 8
  %4 = getelementptr inbounds %"class.__gnu_cxx::__normal_iterator.320", ptr %3, i32 0, i32 0
  %5 = load ptr, ptr %4, align 8
  ret ptr %5
}

; Function Attrs: mustprogress nounwind uwtable
define linkonce_odr dso_local noundef zeroext i1 @_ZN9__gnu_cxxneIPK25cmExpandedCommandArgumentSt6vectorIS1_SaIS1_EEEEbRKNS_17__normal_iteratorIT_T0_EESC_(ptr noundef nonnull align 8 dereferenceable(8) %0, ptr noundef nonnull align 8 dereferenceable(8) %1) #5 comdat {
  %3 = alloca ptr, align 8
  %4 = alloca ptr, align 8
  store ptr %0, ptr %3, align 8
  store ptr %1, ptr %4, align 8
  %5 = load ptr, ptr %3, align 8
  %6 = call noundef nonnull align 8 dereferenceable(8) ptr @_ZNK9__gnu_cxx17__normal_iteratorIPK25cmExpandedCommandArgumentSt6vectorIS1_SaIS1_EEE4baseEv(ptr noundef nonnull align 8 dereferenceable(8) %5) #3
  %7 = load ptr, ptr %6, align 8
  %8 = load ptr, ptr %4, align 8
  %9 = call noundef nonnull align 8 dereferenceable(8) ptr @_ZNK9__gnu_cxx17__normal_iteratorIPK25cmExpandedCommandArgumentSt6vectorIS1_SaIS1_EEE4baseEv(ptr noundef nonnull align 8 dereferenceable(8) %8) #3
  %10 = load ptr, ptr %9, align 8
  %11 = icmp ne ptr %7, %10
  ret i1 %11
}

; Function Attrs: mustprogress nounwind uwtable
define linkonce_odr dso_local ptr @_ZNKSt6vectorI25cmExpandedCommandArgumentSaIS0_EE3endEv(ptr noundef nonnull align 8 dereferenceable(24) %0) #5 comdat align 2 {
  %2 = alloca %"class.__gnu_cxx::__normal_iterator.320", align 8
  %3 = alloca ptr, align 8
  store ptr %0, ptr %3, align 8
  %4 = load ptr, ptr %3, align 8
  %5 = getelementptr inbounds %"struct.std::_Vector_base.300", ptr %4, i32 0, i32 0
  %6 = getelementptr inbounds %"struct.std::_Vector_base<cmExpandedCommandArgument, std::allocator<cmExpandedCommandArgument>>::_Vector_impl_data", ptr %5, i32 0, i32 1
  call void @_ZN9__gnu_cxx17__normal_iteratorIPK25cmExpandedCommandArgumentSt6vectorIS1_SaIS1_EEEC2ERKS3_(ptr noundef nonnull align 8 dereferenceable(8) %2, ptr noundef nonnull align 8 dereferenceable(8) %6) #3
  %7 = getelementptr inbounds %"class.__gnu_cxx::__normal_iterator.320", ptr %2, i32 0, i32 0
  %8 = load ptr, ptr %7, align 8
  ret ptr %8
}

; Function Attrs: mustprogress nounwind uwtable
define linkonce_odr dso_local ptr @_ZNKSt6vectorI25cmExpandedCommandArgumentSaIS0_EE5beginEv(ptr noundef nonnull align 8 dereferenceable(24) %0) #5 comdat align 2 {
  %2 = alloca %"class.__gnu_cxx::__normal_iterator.320", align 8
  %3 = alloca ptr, align 8
  store ptr %0, ptr %3, align 8
  %4 = load ptr, ptr %3, align 8
  %5 = getelementptr inbounds %"struct.std::_Vector_base.300", ptr %4, i32 0, i32 0
  %6 = getelementptr inbounds %"struct.std::_Vector_base<cmExpandedCommandArgument, std::allocator<cmExpandedCommandArgument>>::_Vector_impl_data", ptr %5, i32 0, i32 0
  call void @_ZN9__gnu_cxx17__normal_iteratorIPK25cmExpandedCommandArgumentSt6vectorIS1_SaIS1_EEEC2ERKS3_(ptr noundef nonnull align 8 dereferenceable(8) %2, ptr noundef nonnull align 8 dereferenceable(8) %6) #3
  %7 = getelementptr inbounds %"class.__gnu_cxx::__normal_iterator.320", ptr %2, i32 0, i32 0
  %8 = load ptr, ptr %7, align 8
  ret ptr %8
}

; Function Attrs: mustprogress uwtable
define linkonce_odr dso_local void @_ZNSt7__cxx1112basic_stringIcSt11char_traitsIcESaIcEEC2IS3_EEPKcRKS3_(ptr noundef nonnull align 8 dereferenceable(32) %0, ptr noundef %1, ptr noundef nonnull align 1 dereferenceable(1) %2) unnamed_addr #4 comdat align 2 personality ptr @__gxx_personality_v0 {
  %4 = alloca ptr, align 8
  %5 = alloca ptr, align 8
  %6 = alloca ptr, align 8
  %7 = alloca ptr, align 8
  %8 = alloca i32, align 4
  %9 = alloca ptr, align 8
  store ptr %0, ptr %4, align 8
  store ptr %1, ptr %5, align 8
  store ptr %2, ptr %6, align 8
  %10 = load ptr, ptr %4, align 8
  %11 = getelementptr inbounds %"class.std::__cxx11::basic_string", ptr %10, i32 0, i32 0
  %12 = call noundef ptr @_ZNSt7__cxx1112basic_stringIcSt11char_traitsIcESaIcEE13_M_local_dataEv(ptr noundef nonnull align 8 dereferenceable(32) %10)
  %13 = load ptr, ptr %6, align 8
  call void @_ZNSt7__cxx1112basic_stringIcSt11char_traitsIcESaIcEE12_Alloc_hiderC1EPcRKS3_(ptr noundef nonnull align 8 dereferenceable(8) %11, ptr noundef %12, ptr noundef nonnull align 1 dereferenceable(1) %13)
  %14 = load ptr, ptr %5, align 8
  %15 = icmp eq ptr %14, null
  br i1 %15, label %16, label %22

16:                                               ; preds = %3
  invoke void @_ZSt19__throw_logic_errorPKc(ptr noundef @.str.12) #13
          to label %17 unwind label %18

17:                                               ; preds = %16
  unreachable

18:                                               ; preds = %26, %22, %16
  %19 = landingpad { ptr, i32 }
          cleanup
  %20 = extractvalue { ptr, i32 } %19, 0
  store ptr %20, ptr %7, align 8
  %21 = extractvalue { ptr, i32 } %19, 1
  store i32 %21, ptr %8, align 4
  call void @_ZNSt7__cxx1112basic_stringIcSt11char_traitsIcESaIcEE12_Alloc_hiderD2Ev(ptr noundef nonnull align 8 dereferenceable(8) %11) #3
  br label %31

22:                                               ; preds = %3
  %23 = load ptr, ptr %5, align 8
  %24 = load ptr, ptr %5, align 8
  %25 = invoke noundef i64 @_ZNSt11char_traitsIcE6lengthEPKc(ptr noundef %24)
          to label %26 unwind label %18

26:                                               ; preds = %22
  %27 = getelementptr inbounds i8, ptr %23, i64 %25
  store ptr %27, ptr %9, align 8
  %28 = load ptr, ptr %5, align 8
  %29 = load ptr, ptr %9, align 8
  invoke void @_ZNSt7__cxx1112basic_stringIcSt11char_traitsIcESaIcEE12_M_constructIPKcEEvT_S8_St20forward_iterator_tag(ptr noundef nonnull align 8 dereferenceable(32) %10, ptr noundef %28, ptr noundef %29)
          to label %30 unwind label %18

30:                                               ; preds = %26
  ret void

31:                                               ; preds = %18
  %32 = load ptr, ptr %7, align 8
  %33 = load i32, ptr %8, align 4
  %34 = insertvalue { ptr, i32 } poison, ptr %32, 0
  %35 = insertvalue { ptr, i32 } %34, i32 %33, 1
  resume { ptr, i32 } %35
}

; Function Attrs: mustprogress uwtable
define internal void @_ZL16cmIfCommandErrorB5cxx11RKSt6vectorI25cmExpandedCommandArgumentSaIS0_EE(ptr dead_on_unwind noalias writable sret(%"class.std::__cxx11::basic_string") align 8 %0, ptr noundef nonnull align 8 dereferenceable(24) %1) #4 personality ptr @__gxx_personality_v0 {
  %3 = alloca ptr, align 8
  %4 = alloca ptr, align 8
  %5 = alloca i1, align 1
  %6 = alloca %"class.std::allocator", align 1
  %7 = alloca ptr, align 8
  %8 = alloca i32, align 4
  %9 = alloca ptr, align 8
  %10 = alloca %"class.__gnu_cxx::__normal_iterator.320", align 8
  %11 = alloca %"class.__gnu_cxx::__normal_iterator.320", align 8
  %12 = alloca ptr, align 8
  %13 = alloca %"class.std::__cxx11::basic_string", align 8
  %14 = alloca %"class.std::basic_string_view", align 8
  store ptr %0, ptr %3, align 8
  store ptr %1, ptr %4, align 8
  store i1 false, ptr %5, align 1
  call void @_ZNSaIcEC1Ev(ptr noundef nonnull align 1 dereferenceable(1) %6) #3
  invoke void @_ZNSt7__cxx1112basic_stringIcSt11char_traitsIcESaIcEEC2IS3_EEPKcRKS3_(ptr noundef nonnull align 8 dereferenceable(32) %0, ptr noundef @.str.8, ptr noundef nonnull align 1 dereferenceable(1) %6)
          to label %15 unwind label %46

15:                                               ; preds = %2
  call void @_ZNSaIcED1Ev(ptr noundef nonnull align 1 dereferenceable(1) %6) #3
  %16 = load ptr, ptr %4, align 8
  store ptr %16, ptr %9, align 8
  %17 = load ptr, ptr %9, align 8
  %18 = call ptr @_ZNKSt6vectorI25cmExpandedCommandArgumentSaIS0_EE5beginEv(ptr noundef nonnull align 8 dereferenceable(24) %17) #3
  %19 = getelementptr inbounds %"class.__gnu_cxx::__normal_iterator.320", ptr %10, i32 0, i32 0
  store ptr %18, ptr %19, align 8
  %20 = load ptr, ptr %9, align 8
  %21 = call ptr @_ZNKSt6vectorI25cmExpandedCommandArgumentSaIS0_EE3endEv(ptr noundef nonnull align 8 dereferenceable(24) %20) #3
  %22 = getelementptr inbounds %"class.__gnu_cxx::__normal_iterator.320", ptr %11, i32 0, i32 0
  store ptr %21, ptr %22, align 8
  br label %23

23:                                               ; preds = %44, %15
  %24 = call noundef zeroext i1 @_ZN9__gnu_cxxneIPK25cmExpandedCommandArgumentSt6vectorIS1_SaIS1_EEEEbRKNS_17__normal_iteratorIT_T0_EESC_(ptr noundef nonnull align 8 dereferenceable(8) %10, ptr noundef nonnull align 8 dereferenceable(8) %11) #3
  br i1 %24, label %25, label %58

25:                                               ; preds = %23
  %26 = call noundef nonnull align 8 dereferenceable(33) ptr @_ZNK9__gnu_cxx17__normal_iteratorIPK25cmExpandedCommandArgumentSt6vectorIS1_SaIS1_EEEdeEv(ptr noundef nonnull align 8 dereferenceable(8) %10) #3
  store ptr %26, ptr %12, align 8
  %27 = invoke noundef nonnull align 8 dereferenceable(32) ptr @_ZNSt7__cxx1112basic_stringIcSt11char_traitsIcESaIcEEpLEPKc(ptr noundef nonnull align 8 dereferenceable(32) %0, ptr noundef @.str.9)
          to label %28 unwind label %50

28:                                               ; preds = %25
  %29 = load ptr, ptr %12, align 8
  %30 = invoke noundef nonnull align 8 dereferenceable(32) ptr @_ZNK25cmExpandedCommandArgument8GetValueB5cxx11Ev(ptr noundef nonnull align 8 dereferenceable(33) %29)
          to label %31 unwind label %50

31:                                               ; preds = %28
  %32 = call { i64, ptr } @_ZNKSt7__cxx1112basic_stringIcSt11char_traitsIcESaIcEEcvSt17basic_string_viewIcS2_EEv(ptr noundef nonnull align 8 dereferenceable(32) %30) #3
  %33 = getelementptr inbounds { i64, ptr }, ptr %14, i32 0, i32 0
  %34 = extractvalue { i64, ptr } %32, 0
  store i64 %34, ptr %33, align 8
  %35 = getelementptr inbounds { i64, ptr }, ptr %14, i32 0, i32 1
  %36 = extractvalue { i64, ptr } %32, 1
  store ptr %36, ptr %35, align 8
  %37 = getelementptr inbounds { i64, ptr }, ptr %14, i32 0, i32 0
  %38 = load i64, ptr %37, align 8
  %39 = getelementptr inbounds { i64, ptr }, ptr %14, i32 0, i32 1
  %40 = load ptr, ptr %39, align 8
  invoke void @_ZN17cmOutputConverter14EscapeForCMakeB5cxx11ESt17basic_string_viewIcSt11char_traitsIcEENS_10WrapQuotesE(ptr dead_on_unwind writable sret(%"class.std::__cxx11::basic_string") align 8 %13, i64 %38, ptr %40, i32 noundef 0)
          to label %41 unwind label %50

41:                                               ; preds = %31
  %42 = invoke noundef nonnull align 8 dereferenceable(32) ptr @_ZNSt7__cxx1112basic_stringIcSt11char_traitsIcESaIcEEpLERKS4_(ptr noundef nonnull align 8 dereferenceable(32) %0, ptr noundef nonnull align 8 dereferenceable(32) %13)
          to label %43 unwind label %54

43:                                               ; preds = %41
  call void @_ZNSt7__cxx1112basic_stringIcSt11char_traitsIcESaIcEED1Ev(ptr noundef nonnull align 8 dereferenceable(32) %13) #3
  br label %44

44:                                               ; preds = %43
  %45 = call noundef nonnull align 8 dereferenceable(8) ptr @_ZN9__gnu_cxx17__normal_iteratorIPK25cmExpandedCommandArgumentSt6vectorIS1_SaIS1_EEEppEv(ptr noundef nonnull align 8 dereferenceable(8) %10) #3
  br label %23

46:                                               ; preds = %2
  %47 = landingpad { ptr, i32 }
          cleanup
  %48 = extractvalue { ptr, i32 } %47, 0
  store ptr %48, ptr %7, align 8
  %49 = extractvalue { ptr, i32 } %47, 1
  store i32 %49, ptr %8, align 4
  call void @_ZNSaIcED1Ev(ptr noundef nonnull align 1 dereferenceable(1) %6) #3
  br label %65

50:                                               ; preds = %58, %31, %28, %25
  %51 = landingpad { ptr, i32 }
          cleanup
  %52 = extractvalue { ptr, i32 } %51, 0
  store ptr %52, ptr %7, align 8
  %53 = extractvalue { ptr, i32 } %51, 1
  store i32 %53, ptr %8, align 4
  br label %64

54:                                               ; preds = %41
  %55 = landingpad { ptr, i32 }
          cleanup
  %56 = extractvalue { ptr, i32 } %55, 0
  store ptr %56, ptr %7, align 8
  %57 = extractvalue { ptr, i32 } %55, 1
  store i32 %57, ptr %8, align 4
  call void @_ZNSt7__cxx1112basic_stringIcSt11char_traitsIcESaIcEED1Ev(ptr noundef nonnull align 8 dereferenceable(32) %13) #3
  br label %64

58:                                               ; preds = %23
  %59 = invoke noundef nonnull align 8 dereferenceable(32) ptr @_ZNSt7__cxx1112basic_stringIcSt11char_traitsIcESaIcEEpLEPKc(ptr noundef nonnull align 8 dereferenceable(32) %0, ptr noundef @.str.10)
          to label %60 unwind label %50

60:                                               ; preds = %58
  store i1 true, ptr %5, align 1
  %61 = load i1, ptr %5, align 1
  br i1 %61, label %63, label %62

62:                                               ; preds = %60
  call void @_ZNSt7__cxx1112basic_stringIcSt11char_traitsIcESaIcEED1Ev(ptr noundef nonnull align 8 dereferenceable(32) %0) #3
  br label %63

63:                                               ; preds = %62, %60
  ret void

64:                                               ; preds = %54, %50
  call void @_ZNSt7__cxx1112basic_stringIcSt11char_traitsIcESaIcEED1Ev(ptr noundef nonnull align 8 dereferenceable(32) %0) #3
  br label %65

65:                                               ; preds = %64, %46
  %66 = load ptr, ptr %7, align 8
  %67 = load i32, ptr %8, align 4
  %68 = insertvalue { ptr, i32 } poison, ptr %66, 0
  %69 = insertvalue { ptr, i32 } %68, i32 %67, 1
  resume { ptr, i32 } %69
}